; Function Attrs: mustprogress uwtable
define internal void @"_ZN4LuauL8fnVisitVIRZNS_8toStringB5cxx11ERKNS_8TypePath4PathEbE3$_0KNS1_9PackFieldEEEvRT_PNSt11conditionalIXsr3stdE10is_const_vIT0_EEKvvE4typeE"(ptr noundef nonnull readonly align 8 captures(none) dereferenceable(24) %0, ptr noundef readonly captures(none) %1) #8 {
  %3 = alloca i8, align 1
  %4 = getelementptr inbounds nuw i8, ptr %0, i64 8
  %5 = load ptr, ptr %4, align 8, !tbaa !95
  %6 = load i8, ptr %5, align 1, !tbaa !48, !range !30, !noundef !42
  %7 = trunc nuw i8 %6 to i1
  br i1 %7, label %8, label %13

8:                                                ; preds = %2
  %9 = getelementptr inbounds nuw i8, ptr %0, i64 16
  %10 = load ptr, ptr %9, align 8, !tbaa !101
  %11 = load i8, ptr %10, align 1, !tbaa !48, !range !30, !noundef !42
  %12 = trunc nuw i8 %11 to i1
  br i1 %12, label %13, label %26

13:                                               ; preds = %8, %2
  %14 = load ptr, ptr %0, align 8, !tbaa !83
  %15 = getelementptr inbounds nuw i8, ptr %14, i64 16
  call void @llvm.lifetime.start.p0(i64 1, ptr nonnull %3)
  store i8 46, ptr %3, align 1, !tbaa !26
  %16 = load ptr, ptr %15, align 8, !tbaa !65
  %17 = getelementptr i8, ptr %16, i64 -24
  %18 = load i64, ptr %17, align 8
  %19 = getelementptr inbounds i8, ptr %15, i64 %18
  %20 = getelementptr inbounds nuw i8, ptr %19, i64 16
  %21 = load i64, ptr %20, align 8, !tbaa !85
  %.not.i.i = icmp eq i64 %21, 0
  br i1 %.not.i.i, label %24, label %22

22:                                               ; preds = %13
  %23 = call noundef nonnull align 8 dereferenceable(8) ptr @_ZSt16__ostream_insertIcSt11char_traitsIcEERSt13basic_ostreamIT_T0_ES6_PKS3_l(ptr noundef nonnull align 8 dereferenceable(8) %15, ptr noundef nonnull %3, i64 noundef 1)
  br label %_ZStlsISt11char_traitsIcEERSt13basic_ostreamIcT_ES5_c.exit.i

24:                                               ; preds = %13
  %25 = tail call noundef nonnull align 8 dereferenceable(8) ptr @_ZNSo3putEc(ptr noundef nonnull align 8 dereferenceable(8) %15, i8 noundef signext 46)
  br label %_ZStlsISt11char_traitsIcEERSt13basic_ostreamIcT_ES5_c.exit.i

_ZStlsISt11char_traitsIcEERSt13basic_ostreamIcT_ES5_c.exit.i: ; preds = %24, %22
  call void @llvm.lifetime.end.p0(i64 1, ptr nonnull %3)
  br label %26

26:                                               ; preds = %_ZStlsISt11char_traitsIcEERSt13basic_ostreamIcT_ES5_c.exit.i, %8
  %27 = load i32, ptr %1, align 4, !tbaa !45
  switch i32 %27, label %"_ZZN4Luau8toStringB5cxx11ERKNS_8TypePath4PathEbENK3$_0clIRKNS0_9PackFieldEEEDaOT_.exit" [
    i32 0, label %28
    i32 1, label %32
    i32 2, label %36
  ]

28:                                               ; preds = %26
  %29 = load ptr, ptr %0, align 8, !tbaa !83
  %30 = getelementptr inbounds nuw i8, ptr %29, i64 16
  %31 = call noundef nonnull align 8 dereferenceable(8) ptr @_ZSt16__ostream_insertIcSt11char_traitsIcEERSt13basic_ostreamIT_T0_ES6_PKS3_l(ptr noundef nonnull align 8 dereferenceable(8) %30, ptr noundef nonnull @.str.69, i64 noundef 9)
  br label %"_ZZN4Luau8toStringB5cxx11ERKNS_8TypePath4PathEbENK3$_0clIRKNS0_9PackFieldEEEDaOT_.exit"

32:                                               ; preds = %26
  %33 = load ptr, ptr %0, align 8, !tbaa !83
  %34 = getelementptr inbounds nuw i8, ptr %33, i64 16
  %35 = call noundef nonnull align 8 dereferenceable(8) ptr @_ZSt16__ostream_insertIcSt11char_traitsIcEERSt13basic_ostreamIT_T0_ES6_PKS3_l(ptr noundef nonnull align 8 dereferenceable(8) %34, ptr noundef nonnull @.str.70, i64 noundef 7)
  br label %"_ZZN4Luau8toStringB5cxx11ERKNS_8TypePath4PathEbENK3$_0clIRKNS0_9PackFieldEEEDaOT_.exit"

36:                                               ; preds = %26
  %37 = load ptr, ptr %0, align 8, !tbaa !83
  %38 = getelementptr inbounds nuw i8, ptr %37, i64 16
  %39 = call noundef nonnull align 8 dereferenceable(8) ptr @_ZSt16__ostream_insertIcSt11char_traitsIcEERSt13basic_ostreamIT_T0_ES6_PKS3_l(ptr noundef nonnull align 8 dereferenceable(8) %38, ptr noundef nonnull @.str.71, i64 noundef 4)
  br label %"_ZZN4Luau8toStringB5cxx11ERKNS_8TypePath4PathEbENK3$_0clIRKNS0_9PackFieldEEEDaOT_.exit"

"_ZZN4Luau8toStringB5cxx11ERKNS_8TypePath4PathEbENK3$_0clIRKNS0_9PackFieldEEEDaOT_.exit": ; preds = %26, %28, %32, %36
  %40 = load ptr, ptr %0, align 8, !tbaa !83
  %41 = getelementptr inbounds nuw i8, ptr %40, i64 16
  %42 = call noundef nonnull align 8 dereferenceable(8) ptr @_ZSt16__ostream_insertIcSt11char_traitsIcEERSt13basic_ostreamIT_T0_ES6_PKS3_l(ptr noundef nonnull align 8 dereferenceable(8) %41, ptr noundef nonnull @.str.68, i64 noundef 2)
  %43 = load ptr, ptr %4, align 8, !tbaa !95
  store i8 0, ptr %43, align 1, !tbaa !48
  ret void
}